; Function Attrs: mustprogress uwtable
define hidden void @_ZN4lean7literalC2ERKNS_3natE(ptr noundef nonnull writeonly align 8 captures(none) dereferenceable(8) %0, ptr noundef nonnull readonly align 8 captures(none) dereferenceable(8) %1) unnamed_addr #0 align 2 personality ptr @__gxx_personality_v0 {
  tail call void @lean_inc_heartbeat(), !noalias !18
  %3 = tail call noalias ptr @mi_malloc_small(i64 noundef 16) #16, !noalias !18
  %4 = icmp eq ptr %3, null
  br i1 %4, label %5, label %_ZL23lean_alloc_small_objectj.exit.i.i.i.i

5:                                                ; preds = %2
  tail call void @lean_internal_panic_out_of_memory() #17, !noalias !18
  unreachable

_ZL23lean_alloc_small_objectj.exit.i.i.i.i:       ; preds = %2
  %6 = getelementptr inbounds nuw i8, ptr %3, i64 4
  store i32 1, ptr %3, align 4, !tbaa !21, !noalias !18
  store i32 65552, ptr %6, align 4, !noalias !18
  %7 = load ptr, ptr %1, align 8, !tbaa !10, !noalias !18
  %8 = ptrtoint ptr %7 to i64
  %9 = and i64 %8, 1
  %.not.i.i.i = icmp eq i64 %9, 0
  br i1 %.not.i.i.i, label %10, label %_ZN4lean10object_refD2Ev.exit

10:                                               ; preds = %_ZL23lean_alloc_small_objectj.exit.i.i.i.i
  %.val.i.i.i.i = load i32, ptr %7, align 4, !tbaa !21, !noalias !18
  %11 = icmp sgt i32 %.val.i.i.i.i, 0
  br i1 %11, label %12, label %14, !prof !24

12:                                               ; preds = %10
  %13 = add nuw nsw i32 %.val.i.i.i.i, 1
  store i32 %13, ptr %7, align 4, !tbaa !21, !noalias !18
  br label %_ZN4lean10object_refD2Ev.exit

14:                                               ; preds = %10
  %.not.i.i.i.i = icmp eq i32 %.val.i.i.i.i, 0
  br i1 %.not.i.i.i.i, label %_ZN4lean10object_refD2Ev.exit, label %15

15:                                               ; preds = %14
  tail call void @lean_inc_ref_cold(ptr noundef nonnull %7), !noalias !18
  %.pre.i.i = load ptr, ptr %1, align 8, !tbaa !10, !noalias !18
  br label %_ZN4lean10object_refD2Ev.exit

_ZN4lean10object_refD2Ev.exit:                    ; preds = %_ZL23lean_alloc_small_objectj.exit.i.i.i.i, %12, %14, %15
  %16 = phi ptr [ %7, %_ZL23lean_alloc_small_objectj.exit.i.i.i.i ], [ %7, %12 ], [ %7, %14 ], [ %.pre.i.i, %15 ]
  %17 = getelementptr inbounds nuw i8, ptr %3, i64 8
  store ptr %16, ptr %17, align 8, !tbaa !3, !noalias !18
  store ptr %3, ptr %0, align 8, !tbaa !10
  ret void
}